; Function Attrs: nounwind sspstrong uwtable
define internal noundef zeroext i1 @vhost_user_has_ufo(ptr noundef readonly captures(none) %nc) #0 {
entry:
  %0 = load ptr, ptr %nc, align 8
  %1 = load i32, ptr %0, align 8
  %cmp = icmp eq i32 %1, 12
  br i1 %cmp, label %if.end, label %if.else

if.else:                                          ; preds = %entry
  tail call void @__assert_fail(ptr noundef nonnull @.str, ptr noundef nonnull @.str.1, i32 noundef 205, ptr noundef nonnull @__PRETTY_FUNCTION__.vhost_user_has_ufo) #9
  unreachable

if.end:                                           ; preds = %entry
  ret i1 true
}